target datalayout = "e-m:e-p270:32:32-p271:32:32-p272:64:64-i64:64-i128:128-f80:128-n8:16:32:64-S128"
target triple = "x86_64-pc-linux-gnu"

%struct.ssl_ecdh_method_st = type { i32, i16, [8 x i8], ptr, ptr, ptr }
%struct.ssl_ecdh_ctx_st = type { ptr, ptr }

@.str = private unnamed_addr constant [118 x i8] c"generated/home/dtcxzyw/WorkSpace/Projects/compilers/llvm-opt-benchmark/bench/libquic/libquic/boringssl/ssl/ssl_ecdh.c\00", align 1

; Function Attrs: nounwind uwtable
define internal ptr @method_from_curve_id(i16 noundef zeroext %0) #0 {
  %2 = alloca ptr, align 8
  %3 = alloca i16, align 2
  %4 = alloca i64, align 8
  %5 = alloca i32, align 4
  store i16 %0, ptr %3, align 2, !tbaa !6
  call void @llvm.lifetime.start.p0(i64 8, ptr %4) #5
  store i64 0, ptr %4, align 8, !tbaa !13
  br label %6

6:                                                ; preds = %22, %1
  %7 = load i64, ptr %4, align 8, !tbaa !13
  %8 = icmp ult i64 %7, 4
  br i1 %8, label %9, label %25

9:                                                ; preds = %6
  %10 = load i64, ptr %4, align 8, !tbaa !13
  %11 = getelementptr inbounds nuw [4 x %struct.ssl_ecdh_method_st], ptr @kMethods, i64 0, i64 %10
  %12 = getelementptr inbounds nuw %struct.ssl_ecdh_method_st, ptr %11, i32 0, i32 1
  %13 = load i16, ptr %12, align 4, !tbaa !15
  %14 = zext i16 %13 to i32
  %15 = load i16, ptr %3, align 2, !tbaa !6
  %16 = zext i16 %15 to i32
  %17 = icmp eq i32 %14, %16
  br i1 %17, label %18, label %21

18:                                               ; preds = %9
  %19 = load i64, ptr %4, align 8, !tbaa !13
  %20 = getelementptr inbounds nuw [4 x %struct.ssl_ecdh_method_st], ptr @kMethods, i64 0, i64 %19
  store ptr %20, ptr %2, align 8
  store i32 1, ptr %5, align 4
  br label %26

21:                                               ; preds = %9
  br label %22

22:                                               ; preds = %21
  %23 = load i64, ptr %4, align 8, !tbaa !13
  %24 = add i64 %23, 1
  store i64 %24, ptr %4, align 8, !tbaa !13
  br label %6, !llvm.loop !18

25:                                               ; preds = %6
  store ptr null, ptr %2, align 8
  store i32 1, ptr %5, align 4
  br label %26

26:                                               ; preds = %25, %18
  call void @llvm.lifetime.end.p0(i64 8, ptr %4) #5
  %27 = load ptr, ptr %2, align 8
  ret ptr %27
}

; Function Attrs: nounwind uwtable
define hidden void @SSL_ECDH_CTX_cleanup(ptr noundef %0) #0 {
  %2 = alloca ptr, align 8
  store ptr %0, ptr %2, align 8, !tbaa !25
  %3 = load ptr, ptr %2, align 8, !tbaa !25
  %4 = getelementptr inbounds nuw %struct.ssl_ecdh_ctx_st, ptr %3, i32 0, i32 0
  %5 = load ptr, ptr %4, align 8, !tbaa !27
  %6 = icmp eq ptr %5, null
  br i1 %6, label %7, label %8

7:                                                ; preds = %1
  br label %19

8:                                                ; preds = %1
  %9 = load ptr, ptr %2, align 8, !tbaa !25
  %10 = getelementptr inbounds nuw %struct.ssl_ecdh_ctx_st, ptr %9, i32 0, i32 0
  %11 = load ptr, ptr %10, align 8, !tbaa !27
  %12 = getelementptr inbounds nuw %struct.ssl_ecdh_method_st, ptr %11, i32 0, i32 3
  %13 = load ptr, ptr %12, align 8, !tbaa !29
  %14 = load ptr, ptr %2, align 8, !tbaa !25
  call void %13(ptr noundef %14)
  %15 = load ptr, ptr %2, align 8, !tbaa !25
  %16 = getelementptr inbounds nuw %struct.ssl_ecdh_ctx_st, ptr %15, i32 0, i32 0
  store ptr null, ptr %16, align 8, !tbaa !27
  %17 = load ptr, ptr %2, align 8, !tbaa !25
  %18 = getelementptr inbounds nuw %struct.ssl_ecdh_ctx_st, ptr %17, i32 0, i32 1
  store ptr null, ptr %18, align 8, !tbaa !30
  br label %19

19:                                               ; preds = %8, %7
  ret void
}

; Function Attrs: nounwind uwtable
define hidden i32 @SSL_ECDH_CTX_init(ptr noundef %0, i16 noundef zeroext %1) #0 {
  %3 = alloca i32, align 4
  %4 = alloca ptr, align 8
  %5 = alloca i16, align 2
  %6 = alloca ptr, align 8
  %7 = alloca i32, align 4
  store ptr %0, ptr %4, align 8, !tbaa !25
  store i16 %1, ptr %5, align 2, !tbaa !6
  %8 = load ptr, ptr %4, align 8, !tbaa !25
  call void @SSL_ECDH_CTX_cleanup(ptr noundef %8)
  call void @llvm.lifetime.start.p0(i64 8, ptr %6) #5
  %9 = load i16, ptr %5, align 2, !tbaa !6
  %10 = call ptr @method_from_curve_id(i16 noundef zeroext %9)
  store ptr %10, ptr %6, align 8, !tbaa !10
  %11 = load ptr, ptr %6, align 8, !tbaa !10
  %12 = icmp eq ptr %11, null
  br i1 %12, label %13, label %14

13:                                               ; preds = %2
  call void @ERR_put_error(i32 noundef 16, i32 noundef 0, i32 noundef 239, ptr noundef @.str, i32 noundef 345)
  store i32 0, ptr %3, align 4
  store i32 1, ptr %7, align 4
  br label %18

14:                                               ; preds = %2
  %15 = load ptr, ptr %6, align 8, !tbaa !10
  %16 = load ptr, ptr %4, align 8, !tbaa !25
  %17 = getelementptr inbounds nuw %struct.ssl_ecdh_ctx_st, ptr %16, i32 0, i32 0
  store ptr %15, ptr %17, align 8, !tbaa !27
  store i32 1, ptr %3, align 4
  store i32 1, ptr %7, align 4
  br label %18

18:                                               ; preds = %14, %13
  call void @llvm.lifetime.end.p0(i64 8, ptr %6) #5
  %19 = load i32, ptr %3, align 4
  ret i32 %19
}