; Function Attrs: nounwind uwtable
define hidden range(i32 0, 2) i32 @SSL_ECDH_CTX_init(ptr noundef %0, i16 noundef zeroext %1) local_unnamed_addr #3 {
  %3 = load ptr, ptr %0, align 8, !tbaa !18
  %4 = icmp eq ptr %3, null
  br i1 %4, label %SSL_ECDH_CTX_cleanup.exit.preheader, label %5

5:                                                ; preds = %2
  %6 = getelementptr inbounds nuw i8, ptr %3, i64 16
  %7 = load ptr, ptr %6, align 8, !tbaa !21
  tail call void %7(ptr noundef nonnull %0) #8
  tail call void @llvm.memset.p0.i64(ptr noundef nonnull align 8 dereferenceable(16) %0, i8 0, i64 16, i1 false)
  br label %SSL_ECDH_CTX_cleanup.exit.preheader

SSL_ECDH_CTX_cleanup.exit.preheader:              ; preds = %2, %5
  br label %SSL_ECDH_CTX_cleanup.exit

8:                                                ; preds = %SSL_ECDH_CTX_cleanup.exit
  %9 = add nuw nsw i64 %.06.i, 1
  %exitcond.not.i = icmp eq i64 %9, 4
  br i1 %exitcond.not.i, label %14, label %SSL_ECDH_CTX_cleanup.exit, !llvm.loop !6

SSL_ECDH_CTX_cleanup.exit:                        ; preds = %SSL_ECDH_CTX_cleanup.exit.preheader, %8
  %.06.i = phi i64 [ %9, %8 ], [ 0, %SSL_ECDH_CTX_cleanup.exit.preheader ]
  %10 = getelementptr inbounds nuw [4 x %struct.ssl_ecdh_method_st], ptr @kMethods, i64 0, i64 %.06.i
  %11 = getelementptr inbounds nuw i8, ptr %10, i64 4
  %12 = load i16, ptr %11, align 4, !tbaa !8
  %13 = icmp eq i16 %12, %1
  br i1 %13, label %method_from_curve_id.exit, label %8

14:                                               ; preds = %8
  tail call void @ERR_put_error(i32 noundef 16, i32 noundef 0, i32 noundef 239, ptr noundef nonnull @.str, i32 noundef 345) #8
  br label %15

method_from_curve_id.exit:                        ; preds = %SSL_ECDH_CTX_cleanup.exit
  store ptr %10, ptr %0, align 8, !tbaa !18
  br label %15

15:                                               ; preds = %method_from_curve_id.exit, %14
  %.0 = phi i32 [ 0, %14 ], [ 1, %method_from_curve_id.exit ]
  ret i32 %.0
}